target datalayout = "e-m:e-p270:32:32-p271:32:32-p272:64:64-i64:64-i128:128-f80:128-n8:16:32:64-S128"
target triple = "x86_64-unknown-linux-gnu"

@.str = private unnamed_addr constant [34 x i8] c"../qemu/hw/core/qdev-properties.c\00", align 1
@__func__.error_set_from_qdev_prop_error = private unnamed_addr constant [31 x i8] c"error_set_from_qdev_prop_error\00", align 1
@.str.18 = private unnamed_addr constant [52 x i8] c"Property '%s.%s' can't take value '%s', it's in use\00", align 1
@.str.19 = private unnamed_addr constant [41 x i8] c"Property '%s.%s' doesn't take value '%s'\00", align 1
@.str.20 = private unnamed_addr constant [39 x i8] c"Property '%s.%s' can't find value '%s'\00", align 1

; Function Attrs: nounwind sspstrong uwtable
define dso_local void @error_set_from_qdev_prop_error(ptr noundef %errp, i32 noundef %ret, ptr noundef %obj, ptr noundef %name, ptr noundef %value) #0 {
entry:
  %errp.addr = alloca ptr, align 8
  %ret.addr = alloca i32, align 4
  %obj.addr = alloca ptr, align 8
  %name.addr = alloca ptr, align 8
  %value.addr = alloca ptr, align 8
  store ptr %errp, ptr %errp.addr, align 8
  store i32 %ret, ptr %ret.addr, align 4
  store ptr %obj, ptr %obj.addr, align 8
  store ptr %name, ptr %name.addr, align 8
  store ptr %value, ptr %value.addr, align 8
  %0 = load i32, ptr %ret.addr, align 4
  switch i32 %0, label %sw.default [
    i32 -17, label %sw.bb
    i32 -22, label %sw.bb1
    i32 -2, label %sw.bb3
    i32 0, label %sw.bb5
  ]

sw.bb:                                            ; preds = %entry
  %1 = load ptr, ptr %errp.addr, align 8
  %2 = load ptr, ptr %obj.addr, align 8
  %call = call ptr @object_get_typename(ptr noundef %2)
  %3 = load ptr, ptr %name.addr, align 8
  %4 = load ptr, ptr %value.addr, align 8
  call void (ptr, ptr, i32, ptr, ptr, ...) @error_setg_internal(ptr noundef %1, ptr noundef @.str, i32 noundef 791, ptr noundef @__func__.error_set_from_qdev_prop_error, ptr noundef @.str.18, ptr noundef %call, ptr noundef %3, ptr noundef %4)
  br label %sw.epilog

sw.default:                                       ; preds = %entry
  br label %sw.bb1

sw.bb1:                                           ; preds = %sw.default, %entry
  %5 = load ptr, ptr %errp.addr, align 8
  %6 = load ptr, ptr %obj.addr, align 8
  %call2 = call ptr @object_get_typename(ptr noundef %6)
  %7 = load ptr, ptr %name.addr, align 8
  %8 = load ptr, ptr %value.addr, align 8
  call void (ptr, ptr, i32, ptr, ptr, ...) @error_setg_internal(ptr noundef %5, ptr noundef @.str, i32 noundef 796, ptr noundef @__func__.error_set_from_qdev_prop_error, ptr noundef @.str.19, ptr noundef %call2, ptr noundef %7, ptr noundef %8)
  br label %sw.epilog

sw.bb3:                                           ; preds = %entry
  %9 = load ptr, ptr %errp.addr, align 8
  %10 = load ptr, ptr %obj.addr, align 8
  %call4 = call ptr @object_get_typename(ptr noundef %10)
  %11 = load ptr, ptr %name.addr, align 8
  %12 = load ptr, ptr %value.addr, align 8
  call void (ptr, ptr, i32, ptr, ptr, ...) @error_setg_internal(ptr noundef %9, ptr noundef @.str, i32 noundef 800, ptr noundef @__func__.error_set_from_qdev_prop_error, ptr noundef @.str.20, ptr noundef %call4, ptr noundef %11, ptr noundef %12)
  br label %sw.epilog

sw.bb5:                                           ; preds = %entry
  br label %sw.epilog

sw.epilog:                                        ; preds = %sw.bb5, %sw.bb3, %sw.bb1, %sw.bb
  ret void
}