; Function Attrs: nounwind sspstrong uwtable
define dso_local void @error_set_from_qdev_prop_error(ptr noundef %errp, i32 noundef %ret, ptr noundef %obj, ptr noundef %name, ptr noundef %value) local_unnamed_addr #0 {
entry:
  switch i32 %ret, label %sw.bb1 [
    i32 -17, label %sw.bb
    i32 0, label %sw.epilog
    i32 -2, label %sw.bb3
  ]

sw.bb:                                            ; preds = %entry
  %call = tail call ptr @object_get_typename(ptr noundef %obj) #9
  tail call void (ptr, ptr, i32, ptr, ptr, ...) @error_setg_internal(ptr noundef %errp, ptr noundef nonnull @.str, i32 noundef 791, ptr noundef nonnull @__func__.error_set_from_qdev_prop_error, ptr noundef nonnull @.str.18, ptr noundef %call, ptr noundef %name, ptr noundef %value) #9
  br label %sw.epilog

sw.bb1:                                           ; preds = %entry
  %call2 = tail call ptr @object_get_typename(ptr noundef %obj) #9
  tail call void (ptr, ptr, i32, ptr, ptr, ...) @error_setg_internal(ptr noundef %errp, ptr noundef nonnull @.str, i32 noundef 796, ptr noundef nonnull @__func__.error_set_from_qdev_prop_error, ptr noundef nonnull @.str.19, ptr noundef %call2, ptr noundef %name, ptr noundef %value) #9
  br label %sw.epilog

sw.bb3:                                           ; preds = %entry
  %call4 = tail call ptr @object_get_typename(ptr noundef %obj) #9
  tail call void (ptr, ptr, i32, ptr, ptr, ...) @error_setg_internal(ptr noundef %errp, ptr noundef nonnull @.str, i32 noundef 800, ptr noundef nonnull @__func__.error_set_from_qdev_prop_error, ptr noundef nonnull @.str.20, ptr noundef %call4, ptr noundef %name, ptr noundef %value) #9
  br label %sw.epilog

sw.epilog:                                        ; preds = %entry, %sw.bb3, %sw.bb1, %sw.bb
  ret void
}